target datalayout = "e-m:e-p270:32:32-p271:32:32-p272:64:64-i64:64-i128:128-f80:128-n8:16:32:64-S128"
target triple = "x86_64-pc-linux-gnu"

%union.pthread_mutex_t = type { %struct.__pthread_mutex_s }
%struct.__pthread_mutex_s = type { i32, i32, i32, i32, i32, i16, i16, %struct.__pthread_internal_list }
%struct.__pthread_internal_list = type { ptr, ptr }
%union.pthread_cond_t = type { %struct.__pthread_cond_s }
%struct.__pthread_cond_s = type { %union.__atomic_wide_counter, %union.__atomic_wide_counter, [2 x i32], [2 x i32], i32, i32, [2 x i32] }
%union.__atomic_wide_counter = type { i64 }
%struct.slurm_conf_t = type { i64, ptr, i16, ptr, ptr, ptr, ptr, ptr, i16, ptr, ptr, ptr, ptr, ptr, ptr, ptr, i16, ptr, ptr, ptr, ptr, i16, ptr, ptr, ptr, i64, ptr, ptr, ptr, ptr, i16, ptr, ptr, i16, i32, ptr, i32, ptr, i32, i32, ptr, ptr, i64, i64, ptr, i16, i16, ptr, i32, i32, ptr, i32, ptr, i32, i16, i16, i16, ptr, i16, i16, ptr, ptr, i32, i16, i16, ptr, i32, i16, ptr, ptr, ptr, ptr, i16, ptr, ptr, ptr, ptr, i32, ptr, ptr, ptr, ptr, i16, i16, ptr, i32, i32, i32, i16, i16, ptr, ptr, i16, ptr, ptr, i32, i32, i32, i32, i32, i64, i32, i32, i16, ptr, ptr, i32, ptr, ptr, ptr, i16, i32, ptr, ptr, i16, ptr, ptr, i32, i16, ptr, ptr, ptr, ptr, i32, i32, i16, i16, i32, ptr, i16, ptr, i32, i32, i32, i32, i32, i32, ptr, i16, ptr, ptr, i32, i16, ptr, i32, i16, i16, ptr, ptr, ptr, i16, ptr, ptr, ptr, ptr, i16, i16, ptr, i16, ptr, i16, ptr, i16, ptr, i16, ptr, ptr, ptr, ptr, i16, ptr, ptr, ptr, i32, ptr, i32, ptr, ptr, i16, ptr, ptr, i32, i16, ptr, ptr, i16, i16, ptr, i16, ptr, ptr, ptr, i32, ptr, i16, i16, ptr, ptr, ptr, ptr, ptr, ptr, ptr, ptr, i16, i32, i16, ptr, ptr, ptr, ptr, i32, ptr, ptr, ptr, i16, ptr, ptr, ptr, i16, ptr, i16, ptr, i16, i16, ptr }
%struct.gpu_status_t = type { i32, i64, i64, %struct.acct_gather_energy }
%struct.acct_gather_energy = type { i32, i64, i64, i32, i64, i64, i64 }
%struct.slurmd_config = type { ptr, ptr, i32, [4096 x i8], ptr, ptr, ptr, ptr, i16, i16, i16, i16, ptr, i16, i64, i16, i16, i16, i16, i16, i16, i16, i16, i16, i16, i16, i64, i64, i32, i32, i16, ptr, ptr, ptr, i32, ptr, ptr, ptr, ptr, ptr, ptr, ptr, ptr, ptr, ptr, i32, ptr, ptr, i16, i32, i32, %struct.log_options_t, i32, i16, i64, i8, i8, i8, i8, i8, %union.pthread_mutex_t, i16, ptr, %union.pthread_cond_t, ptr, %union.pthread_cond_t, i8, i8, ptr, ptr }
%struct.log_options_t = type { i32, i32, i32, i8, i8, i8, i32 }

@conf = dso_local global ptr null, align 8
@plugin_type = dso_local constant [23 x i8] c"acct_gather_energy/gpu\00", align 16
@.str.2 = private unnamed_addr constant [25 x i8] c"acct_gather_energy_gpu.c\00", align 1
@gpus = internal global ptr null, align 8
@start_current_energies = internal global ptr null, align 8
@gpus_len = internal global i16 0, align 2
@slurm_conf = external global %struct.slurm_conf_t, align 8
@context_id = internal global i32 -1, align 4
@_get_joules_task.stepd_first = internal global i8 1, align 1
@.str.19 = private unnamed_addr constant [68 x i8] c"%s: %s: ENERGY: energy RPC limit reached on slurmd, request dropped\00", align 1
@__func__._get_joules_task = private unnamed_addr constant [17 x i8] c"_get_joules_task\00", align 1
@.str.20 = private unnamed_addr constant [31 x i8] c"%s: can't get info from slurmd\00", align 1
@.str.21 = private unnamed_addr constant [37 x i8] c"%s: received %u sensors, %u expected\00", align 1
@.str.22 = private unnamed_addr constant [73 x i8] c"%s: %s: ENERGY: consumed %lu Joules (received %lu(%u watts) from slurmd)\00", align 1

; Function Attrs: nounwind uwtable
define internal i64 @_get_additional_consumption(i64 noundef %0, i64 noundef %1, i32 noundef %2, i32 noundef %3) #0 {
  %5 = alloca i64, align 8
  %6 = alloca i64, align 8
  %7 = alloca i32, align 4
  %8 = alloca i32, align 4
  store i64 %0, ptr %5, align 8
  store i64 %1, ptr %6, align 8
  store i32 %2, ptr %7, align 4
  store i32 %3, ptr %8, align 4
  %9 = load i64, ptr %6, align 8
  %10 = load i64, ptr %5, align 8
  %11 = sub nsw i64 %9, %10
  %12 = load i32, ptr %8, align 4
  %13 = load i32, ptr %7, align 4
  %14 = add i32 %12, %13
  %15 = zext i32 %14 to i64
  %16 = mul nsw i64 %11, %15
  %17 = sdiv i64 %16, 2
  ret i64 %17
}

; Function Attrs: nounwind uwtable
define internal i32 @_get_joules_task(i16 noundef zeroext %0) #0 {
  %2 = alloca i32, align 4
  %3 = alloca i16, align 2
  %4 = alloca i64, align 8
  %5 = alloca i64, align 8
  %6 = alloca i16, align 2
  %7 = alloca ptr, align 8
  %8 = alloca ptr, align 8
  %9 = alloca ptr, align 8
  %10 = alloca i16, align 2
  %11 = alloca i32, align 4
  store i16 %0, ptr %3, align 2
  call void @llvm.lifetime.start.p0(i64 8, ptr %4) #9
  %12 = call i64 @time(ptr noundef null) #9
  store i64 %12, ptr %4, align 8
  call void @llvm.lifetime.start.p0(i64 8, ptr %5) #9
  store i64 0, ptr %5, align 8
  call void @llvm.lifetime.start.p0(i64 2, ptr %6) #9
  call void @llvm.lifetime.start.p0(i64 8, ptr %7) #9
  call void @llvm.lifetime.start.p0(i64 8, ptr %8) #9
  call void @llvm.lifetime.start.p0(i64 8, ptr %9) #9
  store ptr null, ptr %9, align 8
  call void @llvm.lifetime.start.p0(i64 2, ptr %10) #9
  store i16 0, ptr %10, align 2
  %13 = call i32 @gres_get_gres_cnt()
  %14 = icmp ne i32 %13, 0
  br i1 %14, label %16, label %15

15:                                               ; preds = %1
  store i32 0, ptr %2, align 4
  store i32 1, ptr %11, align 4
  br label %202

16:                                               ; preds = %1
  %17 = load ptr, ptr @conf, align 8
  %18 = getelementptr inbounds nuw %struct.slurmd_config, ptr %17, i32 0, i32 35
  %19 = load ptr, ptr %18, align 8
  %20 = load i32, ptr @context_id, align 4
  %21 = trunc i32 %20 to i16
  %22 = load i16, ptr %3, align 2
  %23 = call i32 @slurm_get_node_energy(ptr noundef %19, i16 noundef zeroext %21, i16 noundef zeroext %22, ptr noundef %10, ptr noundef %9)
  %24 = icmp ne i32 %23, 0
  br i1 %24, label %25, label %48

25:                                               ; preds = %16
  %26 = call ptr @__errno_location() #10
  %27 = load i32, ptr %26, align 4
  %28 = icmp eq i32 %27, 4034
  br i1 %28, label %29, label %45

29:                                               ; preds = %25
  br label %30

30:                                               ; preds = %29
  %31 = load i64, ptr getelementptr inbounds nuw (%struct.slurm_conf_t, ptr @slurm_conf, i32 0, i32 42), align 8
  %32 = and i64 %31, 262144
  %33 = icmp ne i64 %32, 0
  br i1 %33, label %34, label %42

34:                                               ; preds = %30
  br label %35

35:                                               ; preds = %34
  %36 = call i32 @slurm_get_log_level()
  %37 = icmp sge i32 %36, 4
  br i1 %37, label %38, label %39

38:                                               ; preds = %35
  call void (i32, ptr, ...) @slurm_log_var(i32 noundef 4, ptr noundef @.str.19, ptr noundef @plugin_type, ptr noundef @__func__._get_joules_task)
  br label %39

39:                                               ; preds = %38, %35
  br label %40

40:                                               ; preds = %39
  br label %41

41:                                               ; preds = %40
  br label %42

42:                                               ; preds = %41, %30
  br label %43

43:                                               ; preds = %42
  br label %44

44:                                               ; preds = %43
  br label %47

45:                                               ; preds = %25
  %46 = call i32 (ptr, ...) @slurm_error(ptr noundef @.str.20, ptr noundef @__func__._get_joules_task)
  br label %47

47:                                               ; preds = %45, %44
  store i32 -1, ptr %2, align 4
  store i32 1, ptr %11, align 4
  br label %202

48:                                               ; preds = %16
  %49 = load i16, ptr %10, align 2
  %50 = icmp ne i16 %49, 0
  br i1 %50, label %52, label %51

51:                                               ; preds = %48
  store i32 0, ptr %2, align 4
  store i32 1, ptr %11, align 4
  br label %202

52:                                               ; preds = %48
  %53 = load i8, ptr @_get_joules_task.stepd_first, align 1, !range !13, !noundef !14
  %54 = trunc i8 %53 to i1
  br i1 %54, label %55, label %63

55:                                               ; preds = %52
  %56 = load i16, ptr %10, align 2
  store i16 %56, ptr @gpus_len, align 2
  %57 = load i16, ptr @gpus_len, align 2
  %58 = zext i16 %57 to i64
  %59 = call ptr @slurm_xcalloc(i64 noundef 80, i64 noundef %58, i1 noundef zeroext true, i1 noundef zeroext false, ptr noundef @.str.2, i32 noundef 429, ptr noundef @__func__._get_joules_task)
  store ptr %59, ptr @gpus, align 8
  %60 = load i16, ptr @gpus_len, align 2
  %61 = zext i16 %60 to i64
  %62 = call ptr @slurm_xcalloc(i64 noundef 8, i64 noundef %61, i1 noundef zeroext true, i1 noundef zeroext false, ptr noundef @.str.2, i32 noundef 430, ptr noundef @__func__._get_joules_task)
  store ptr %62, ptr @start_current_energies, align 8
  br label %63

63:                                               ; preds = %55, %52
  %64 = load i16, ptr %10, align 2
  %65 = zext i16 %64 to i32
  %66 = load i16, ptr @gpus_len, align 2
  %67 = zext i16 %66 to i32
  %68 = icmp ne i32 %65, %67
  br i1 %68, label %69, label %76

69:                                               ; preds = %63
  %70 = load i16, ptr %10, align 2
  %71 = zext i16 %70 to i32
  %72 = load i16, ptr @gpus_len, align 2
  %73 = zext i16 %72 to i32
  %74 = call i32 (ptr, ...) @slurm_error(ptr noundef @.str.21, ptr noundef @__func__._get_joules_task, i32 noundef %71, i32 noundef %73)
  %75 = load ptr, ptr %9, align 8
  call void @acct_gather_energy_destroy(ptr noundef %75)
  store i32 -1, ptr %2, align 4
  store i32 1, ptr %11, align 4
  br label %202

76:                                               ; preds = %63
  store i16 0, ptr %6, align 2
  br label %77

77:                                               ; preds = %197, %76
  %78 = load i16, ptr %6, align 2
  %79 = zext i16 %78 to i32
  %80 = load i16, ptr %10, align 2
  %81 = zext i16 %80 to i32
  %82 = icmp slt i32 %79, %81
  br i1 %82, label %83, label %200

83:                                               ; preds = %77
  %84 = load ptr, ptr %9, align 8
  %85 = load i16, ptr %6, align 2
  %86 = zext i16 %85 to i64
  %87 = getelementptr inbounds nuw %struct.acct_gather_energy, ptr %84, i64 %86
  store ptr %87, ptr %7, align 8
  %88 = load ptr, ptr @gpus, align 8
  %89 = load i16, ptr %6, align 2
  %90 = zext i16 %89 to i64
  %91 = getelementptr inbounds nuw %struct.gpu_status_t, ptr %88, i64 %90
  %92 = getelementptr inbounds nuw %struct.gpu_status_t, ptr %91, i32 0, i32 3
  store ptr %92, ptr %8, align 8
  %93 = load ptr, ptr %8, align 8
  %94 = getelementptr inbounds nuw %struct.acct_gather_energy, ptr %93, i32 0, i32 2
  %95 = load i64, ptr %94, align 8
  %96 = load ptr, ptr %7, align 8
  %97 = getelementptr inbounds nuw %struct.acct_gather_energy, ptr %96, i32 0, i32 4
  store i64 %95, ptr %97, align 8
  %98 = load ptr, ptr %7, align 8
  %99 = getelementptr inbounds nuw %struct.acct_gather_energy, ptr %98, i32 0, i32 5
  %100 = load i64, ptr %99, align 8
  %101 = load i64, ptr %4, align 8
  %102 = load ptr, ptr %7, align 8
  %103 = getelementptr inbounds nuw %struct.acct_gather_energy, ptr %102, i32 0, i32 3
  %104 = load i32, ptr %103, align 8
  %105 = load ptr, ptr %7, align 8
  %106 = getelementptr inbounds nuw %struct.acct_gather_energy, ptr %105, i32 0, i32 3
  %107 = load i32, ptr %106, align 8
  %108 = call i64 @_get_additional_consumption(i64 noundef %100, i64 noundef %101, i32 noundef %104, i32 noundef %107)
  store i64 %108, ptr %5, align 8
  %109 = load i8, ptr @_get_joules_task.stepd_first, align 1, !range !13, !noundef !14
  %110 = trunc i8 %109 to i1
  br i1 %110, label %149, label %111

111:                                              ; preds = %83
  %112 = load ptr, ptr %8, align 8
  %113 = getelementptr inbounds nuw %struct.acct_gather_energy, ptr %112, i32 0, i32 2
  %114 = load i64, ptr %113, align 8
  %115 = load ptr, ptr %7, align 8
  %116 = getelementptr inbounds nuw %struct.acct_gather_energy, ptr %115, i32 0, i32 2
  %117 = load i64, ptr %116, align 8
  %118 = icmp ugt i64 %114, %117
  br i1 %118, label %119, label %127

119:                                              ; preds = %111
  %120 = load ptr, ptr %7, align 8
  %121 = getelementptr inbounds nuw %struct.acct_gather_energy, ptr %120, i32 0, i32 2
  %122 = load i64, ptr %121, align 8
  %123 = load i64, ptr %5, align 8
  %124 = add i64 %122, %123
  %125 = load ptr, ptr %7, align 8
  %126 = getelementptr inbounds nuw %struct.acct_gather_energy, ptr %125, i32 0, i32 1
  store i64 %124, ptr %126, align 8
  br label %148

127:                                              ; preds = %111
  %128 = load ptr, ptr @start_current_energies, align 8
  %129 = load i16, ptr %6, align 2
  %130 = zext i16 %129 to i64
  %131 = getelementptr inbounds nuw i64, ptr %128, i64 %130
  %132 = load i64, ptr %131, align 8
  %133 = load ptr, ptr %7, align 8
  %134 = getelementptr inbounds nuw %struct.acct_gather_energy, ptr %133, i32 0, i32 2
  %135 = load i64, ptr %134, align 8
  %136 = sub i64 %135, %132
  store i64 %136, ptr %134, align 8
  %137 = load i64, ptr %5, align 8
  %138 = load ptr, ptr %7, align 8
  %139 = getelementptr inbounds nuw %struct.acct_gather_energy, ptr %138, i32 0, i32 2
  %140 = load i64, ptr %139, align 8
  %141 = load ptr, ptr %8, align 8
  %142 = getelementptr inbounds nuw %struct.acct_gather_energy, ptr %141, i32 0, i32 2
  %143 = load i64, ptr %142, align 8
  %144 = sub i64 %140, %143
  %145 = add i64 %137, %144
  %146 = load ptr, ptr %7, align 8
  %147 = getelementptr inbounds nuw %struct.acct_gather_energy, ptr %146, i32 0, i32 1
  store i64 %145, ptr %147, align 8
  br label %148

148:                                              ; preds = %127, %119
  br label %161

149:                                              ; preds = %83
  %150 = load ptr, ptr %7, align 8
  %151 = getelementptr inbounds nuw %struct.acct_gather_energy, ptr %150, i32 0, i32 2
  %152 = load i64, ptr %151, align 8
  %153 = load i64, ptr %5, align 8
  %154 = add i64 %152, %153
  %155 = load ptr, ptr @start_current_energies, align 8
  %156 = load i16, ptr %6, align 2
  %157 = zext i16 %156 to i64
  %158 = getelementptr inbounds nuw i64, ptr %155, i64 %157
  store i64 %154, ptr %158, align 8
  %159 = load ptr, ptr %7, align 8
  %160 = getelementptr inbounds nuw %struct.acct_gather_energy, ptr %159, i32 0, i32 1
  store i64 0, ptr %160, align 8
  br label %161

161:                                              ; preds = %149, %148
  %162 = load ptr, ptr %7, align 8
  %163 = getelementptr inbounds nuw %struct.acct_gather_energy, ptr %162, i32 0, i32 4
  %164 = load i64, ptr %163, align 8
  %165 = load ptr, ptr %7, align 8
  %166 = getelementptr inbounds nuw %struct.acct_gather_energy, ptr %165, i32 0, i32 1
  %167 = load i64, ptr %166, align 8
  %168 = add i64 %164, %167
  %169 = load ptr, ptr %7, align 8
  %170 = getelementptr inbounds nuw %struct.acct_gather_energy, ptr %169, i32 0, i32 2
  store i64 %168, ptr %170, align 8
  %171 = load ptr, ptr %8, align 8
  %172 = load ptr, ptr %7, align 8
  call void @llvm.memcpy.p0.p0.i64(ptr align 8 %171, ptr align 8 %172, i64 56, i1 false)
  br label %173

173:                                              ; preds = %161
  %174 = load i64, ptr getelementptr inbounds nuw (%struct.slurm_conf_t, ptr @slurm_conf, i32 0, i32 42), align 8
  %175 = and i64 %174, 262144
  %176 = icmp ne i64 %175, 0
  br i1 %176, label %177, label %194

177:                                              ; preds = %173
  br label %178

178:                                              ; preds = %177
  %179 = call i32 @slurm_get_log_level()
  %180 = icmp sge i32 %179, 4
  br i1 %180, label %181, label %191

181:                                              ; preds = %178
  %182 = load ptr, ptr %7, align 8
  %183 = getelementptr inbounds nuw %struct.acct_gather_energy, ptr %182, i32 0, i32 2
  %184 = load i64, ptr %183, align 8
  %185 = load ptr, ptr %7, align 8
  %186 = getelementptr inbounds nuw %struct.acct_gather_energy, ptr %185, i32 0, i32 1
  %187 = load i64, ptr %186, align 8
  %188 = load ptr, ptr %7, align 8
  %189 = getelementptr inbounds nuw %struct.acct_gather_energy, ptr %188, i32 0, i32 3
  %190 = load i32, ptr %189, align 8
  call void (i32, ptr, ...) @slurm_log_var(i32 noundef 4, ptr noundef @.str.22, ptr noundef @plugin_type, ptr noundef @__func__._get_joules_task, i64 noundef %184, i64 noundef %187, i32 noundef %190)
  br label %191

191:                                              ; preds = %181, %178
  br label %192

192:                                              ; preds = %191
  br label %193

193:                                              ; preds = %192
  br label %194

194:                                              ; preds = %193, %173
  br label %195

195:                                              ; preds = %194
  br label %196

196:                                              ; preds = %195
  br label %197

197:                                              ; preds = %196
  %198 = load i16, ptr %6, align 2
  %199 = add i16 %198, 1
  store i16 %199, ptr %6, align 2
  br label %77, !llvm.loop !15

200:                                              ; preds = %77
  %201 = load ptr, ptr %9, align 8
  call void @acct_gather_energy_destroy(ptr noundef %201)
  store i8 0, ptr @_get_joules_task.stepd_first, align 1
  store i32 0, ptr %2, align 4
  store i32 1, ptr %11, align 4
  br label %202

202:                                              ; preds = %200, %69, %51, %47, %15
  call void @llvm.lifetime.end.p0(i64 2, ptr %10) #9
  call void @llvm.lifetime.end.p0(i64 8, ptr %9) #9
  call void @llvm.lifetime.end.p0(i64 8, ptr %8) #9
  call void @llvm.lifetime.end.p0(i64 8, ptr %7) #9
  call void @llvm.lifetime.end.p0(i64 2, ptr %6) #9
  call void @llvm.lifetime.end.p0(i64 8, ptr %5) #9
  call void @llvm.lifetime.end.p0(i64 8, ptr %4) #9
  %203 = load i32, ptr %2, align 4
  ret i32 %203
}