; Function Attrs: nounwind uwtable
define internal fastcc void @_get_joules_task(i16 noundef zeroext %0) unnamed_addr #1 {
  %2 = alloca ptr, align 8
  %3 = alloca i16, align 2
  %4 = tail call i64 @time(ptr noundef null) #11
  call void @llvm.lifetime.start.p0(i64 8, ptr nonnull %2) #11
  store ptr null, ptr %2, align 8
  call void @llvm.lifetime.start.p0(i64 2, ptr nonnull %3) #11
  store i16 0, ptr %3, align 2
  %5 = tail call i32 @gres_get_gres_cnt() #11
  %.not = icmp eq i32 %5, 0
  br i1 %.not, label %100, label %6

6:                                                ; preds = %1
  %7 = load ptr, ptr @conf, align 8
  %8 = getelementptr inbounds nuw i8, ptr %7, i64 4272
  %9 = load ptr, ptr %8, align 8
  %10 = load i32, ptr @context_id, align 4
  %11 = trunc i32 %10 to i16
  %12 = call i32 @slurm_get_node_energy(ptr noundef %9, i16 noundef zeroext %11, i16 noundef zeroext %0, ptr noundef nonnull %3, ptr noundef nonnull %2) #11
  %.not40 = icmp eq i32 %12, 0
  br i1 %.not40, label %26, label %13

13:                                               ; preds = %6
  %14 = tail call ptr @__errno_location() #12
  %15 = load i32, ptr %14, align 4
  %16 = icmp eq i32 %15, 4034
  br i1 %16, label %17, label %24

17:                                               ; preds = %13
  %18 = load i64, ptr getelementptr inbounds nuw (i8, ptr @slurm_conf, i64 320), align 8
  %19 = and i64 %18, 262144
  %.not44 = icmp eq i64 %19, 0
  br i1 %.not44, label %100, label %20

20:                                               ; preds = %17
  %21 = call i32 @slurm_get_log_level() #11
  %22 = icmp sgt i32 %21, 3
  br i1 %22, label %23, label %100

23:                                               ; preds = %20
  call void (i32, ptr, ...) @slurm_log_var(i32 noundef 4, ptr noundef nonnull @.str.19, ptr noundef nonnull @plugin_type, ptr noundef nonnull @__func__._get_joules_task) #11
  br label %100

24:                                               ; preds = %13
  %25 = call i32 (ptr, ...) @slurm_error(ptr noundef nonnull @.str.20, ptr noundef nonnull @__func__._get_joules_task) #11
  br label %100

26:                                               ; preds = %6
  %27 = load i16, ptr %3, align 2
  %.not41 = icmp eq i16 %27, 0
  br i1 %.not41, label %100, label %28

28:                                               ; preds = %26
  %.b39 = load i1, ptr @_get_joules_task.stepd_first, align 1
  br i1 %.b39, label %35, label %29

29:                                               ; preds = %28
  store i16 %27, ptr @gpus_len, align 2
  %30 = zext i16 %27 to i64
  %31 = call ptr @slurm_xcalloc(i64 noundef 80, i64 noundef %30, i1 noundef zeroext true, i1 noundef zeroext false, ptr noundef nonnull @.str.2, i32 noundef 429, ptr noundef nonnull @__func__._get_joules_task) #11
  store ptr %31, ptr @gpus, align 8
  %32 = load i16, ptr @gpus_len, align 2
  %33 = zext i16 %32 to i64
  %34 = call ptr @slurm_xcalloc(i64 noundef 8, i64 noundef %33, i1 noundef zeroext true, i1 noundef zeroext false, ptr noundef nonnull @.str.2, i32 noundef 430, ptr noundef nonnull @__func__._get_joules_task) #11
  store ptr %34, ptr @start_current_energies, align 8
  %.pre = load i16, ptr %3, align 2
  br label %35

35:                                               ; preds = %29, %28
  %36 = phi i16 [ %.pre, %29 ], [ %27, %28 ]
  %37 = load i16, ptr @gpus_len, align 2
  %.not42 = icmp eq i16 %36, %37
  br i1 %.not42, label %.preheader, label %38

.preheader:                                       ; preds = %35
  %.not46 = icmp eq i16 %36, 0
  br i1 %.not46, label %._crit_edge, label %.lr.ph

38:                                               ; preds = %35
  %39 = zext i16 %37 to i32
  %40 = zext i16 %36 to i32
  %41 = call i32 (ptr, ...) @slurm_error(ptr noundef nonnull @.str.21, ptr noundef nonnull @__func__._get_joules_task, i32 noundef %40, i32 noundef %39) #11
  %42 = load ptr, ptr %2, align 8
  call void @acct_gather_energy_destroy(ptr noundef %42) #11
  br label %100

.lr.ph:                                           ; preds = %.preheader, %95
  %indvars.iv = phi i64 [ %indvars.iv.next, %95 ], [ 0, %.preheader ]
  %43 = load ptr, ptr %2, align 8
  %44 = getelementptr inbounds nuw %struct.acct_gather_energy, ptr %43, i64 %indvars.iv
  %45 = load ptr, ptr @gpus, align 8
  %46 = getelementptr inbounds nuw %struct.gpu_status_t, ptr %45, i64 %indvars.iv, i32 3
  %47 = getelementptr inbounds nuw i8, ptr %46, i64 16
  %48 = load i64, ptr %47, align 8
  %49 = getelementptr inbounds nuw i8, ptr %44, i64 32
  store i64 %48, ptr %49, align 8
  %50 = getelementptr inbounds nuw i8, ptr %44, i64 40
  %51 = load i64, ptr %50, align 8
  %52 = getelementptr inbounds nuw i8, ptr %44, i64 24
  %53 = load i32, ptr %52, align 8
  %54 = sub nsw i64 %4, %51
  %55 = shl i32 %53, 1
  %56 = zext i32 %55 to i64
  %57 = mul nsw i64 %54, %56
  %58 = ashr exact i64 %57, 1
  %.b = load i1, ptr @_get_joules_task.stepd_first, align 1
  %59 = getelementptr inbounds nuw i8, ptr %44, i64 16
  %60 = load i64, ptr %59, align 8
  br i1 %.b, label %61, label %75

61:                                               ; preds = %.lr.ph
  %62 = icmp ugt i64 %48, %60
  br i1 %62, label %63, label %66

63:                                               ; preds = %61
  %64 = add i64 %60, %58
  %65 = getelementptr inbounds nuw i8, ptr %44, i64 8
  store i64 %64, ptr %65, align 8
  br label %80

66:                                               ; preds = %61
  %67 = load ptr, ptr @start_current_energies, align 8
  %68 = getelementptr inbounds nuw i64, ptr %67, i64 %indvars.iv
  %69 = load i64, ptr %68, align 8
  %70 = sub i64 %60, %69
  store i64 %70, ptr %59, align 8
  %71 = load i64, ptr %47, align 8
  %72 = add i64 %70, %58
  %73 = sub i64 %72, %71
  %74 = getelementptr inbounds nuw i8, ptr %44, i64 8
  store i64 %73, ptr %74, align 8
  br label %80

75:                                               ; preds = %.lr.ph
  %76 = add i64 %60, %58
  %77 = load ptr, ptr @start_current_energies, align 8
  %78 = getelementptr inbounds nuw i64, ptr %77, i64 %indvars.iv
  store i64 %76, ptr %78, align 8
  %79 = getelementptr inbounds nuw i8, ptr %44, i64 8
  store i64 0, ptr %79, align 8
  %.pre48 = load i64, ptr %49, align 8
  br label %80

80:                                               ; preds = %63, %66, %75
  %81 = phi i64 [ %64, %63 ], [ %73, %66 ], [ 0, %75 ]
  %82 = phi i64 [ %48, %63 ], [ %48, %66 ], [ %.pre48, %75 ]
  %83 = getelementptr inbounds nuw i8, ptr %44, i64 8
  %84 = add i64 %81, %82
  %85 = getelementptr inbounds nuw i8, ptr %44, i64 16
  store i64 %84, ptr %85, align 8
  call void @llvm.memcpy.p0.p0.i64(ptr noundef nonnull align 8 dereferenceable(56) %46, ptr noundef nonnull align 8 dereferenceable(56) %44, i64 56, i1 false)
  %86 = load i64, ptr getelementptr inbounds nuw (i8, ptr @slurm_conf, i64 320), align 8
  %87 = and i64 %86, 262144
  %.not43 = icmp eq i64 %87, 0
  br i1 %.not43, label %95, label %88

88:                                               ; preds = %80
  %89 = call i32 @slurm_get_log_level() #11
  %90 = icmp sgt i32 %89, 3
  br i1 %90, label %91, label %95

91:                                               ; preds = %88
  %92 = load i64, ptr %85, align 8
  %93 = load i64, ptr %83, align 8
  %94 = load i32, ptr %52, align 8
  call void (i32, ptr, ...) @slurm_log_var(i32 noundef 4, ptr noundef nonnull @.str.22, ptr noundef nonnull @plugin_type, ptr noundef nonnull @__func__._get_joules_task, i64 noundef %92, i64 noundef %93, i32 noundef %94) #11
  br label %95

95:                                               ; preds = %80, %91, %88
  %indvars.iv.next = add nuw nsw i64 %indvars.iv, 1
  %96 = load i16, ptr %3, align 2
  %97 = zext i16 %96 to i64
  %98 = icmp samesign ult i64 %indvars.iv.next, %97
  br i1 %98, label %.lr.ph, label %._crit_edge, !llvm.loop !16

._crit_edge:                                      ; preds = %95, %.preheader
  %99 = load ptr, ptr %2, align 8
  call void @acct_gather_energy_destroy(ptr noundef %99) #11
  store i1 true, ptr @_get_joules_task.stepd_first, align 1
  br label %100

100:                                              ; preds = %26, %24, %20, %23, %17, %1, %._crit_edge, %38
  call void @llvm.lifetime.end.p0(i64 2, ptr nonnull %3) #11
  call void @llvm.lifetime.end.p0(i64 8, ptr nonnull %2) #11
  ret void
}